target datalayout = "e-m:e-p270:32:32-p271:32:32-p272:64:64-i64:64-i128:128-f80:128-n8:16:32:64-S128"
target triple = "x86_64-pc-linux-gnu"

%"struct.duckdb_zstd::XXH32_state_s" = type { i32, i32, i32, i32, i32, i32, [4 x i32], i32, i32 }

; Function Attrs: mustprogress nounwind uwtable
define noundef i32 @_ZN11duckdb_zstd11XXH32_resetEPNS_13XXH32_state_sEj(ptr noundef %0, i32 noundef %1) #0 {
  %3 = alloca ptr, align 8
  %4 = alloca i32, align 4
  %5 = alloca %"struct.duckdb_zstd::XXH32_state_s", align 4
  store ptr %0, ptr %3, align 8, !tbaa !3
  store i32 %1, ptr %4, align 4, !tbaa !13
  call void @llvm.lifetime.start.p0(i64 48, ptr %5) #8
  call void @llvm.memset.p0.i64(ptr align 4 %5, i8 0, i64 44, i1 false)
  %6 = load i32, ptr %4, align 4, !tbaa !13
  %7 = add i32 %6, -1640531535
  %8 = add i32 %7, -2048144777
  %9 = getelementptr inbounds nuw %"struct.duckdb_zstd::XXH32_state_s", ptr %5, i32 0, i32 2
  store i32 %8, ptr %9, align 4, !tbaa !31
  %10 = load i32, ptr %4, align 4, !tbaa !13
  %11 = add i32 %10, -2048144777
  %12 = getelementptr inbounds nuw %"struct.duckdb_zstd::XXH32_state_s", ptr %5, i32 0, i32 3
  store i32 %11, ptr %12, align 4, !tbaa !33
  %13 = load i32, ptr %4, align 4, !tbaa !13
  %14 = add i32 %13, 0
  %15 = getelementptr inbounds nuw %"struct.duckdb_zstd::XXH32_state_s", ptr %5, i32 0, i32 4
  store i32 %14, ptr %15, align 4, !tbaa !34
  %16 = load i32, ptr %4, align 4, !tbaa !13
  %17 = sub i32 %16, -1640531535
  %18 = getelementptr inbounds nuw %"struct.duckdb_zstd::XXH32_state_s", ptr %5, i32 0, i32 5
  store i32 %17, ptr %18, align 4, !tbaa !35
  %19 = load ptr, ptr %3, align 8, !tbaa !3
  call void @llvm.memcpy.p0.p0.i64(ptr align 4 %19, ptr align 4 %5, i64 48, i1 false)
  call void @llvm.lifetime.end.p0(i64 48, ptr %5) #8
  ret i32 0
}