; Function Attrs: mustprogress nofree norecurse nosync nounwind willreturn memory(argmem: write) uwtable
define noundef i32 @_ZN11duckdb_zstd11XXH32_resetEPNS_13XXH32_state_sEj(ptr noundef writeonly captures(none) initializes((0, 44)) %0, i32 noundef %1) local_unnamed_addr #6 {
  %3 = add i32 %1, 606290984
  %4 = add i32 %1, -2048144777
  %5 = add i32 %1, 1640531535
  store i64 0, ptr %0, align 4
  %.sroa.4.0..sroa_idx = getelementptr inbounds nuw i8, ptr %0, i64 8
  store i32 %3, ptr %.sroa.4.0..sroa_idx, align 4
  %.sroa.5.0..sroa_idx = getelementptr inbounds nuw i8, ptr %0, i64 12
  store i32 %4, ptr %.sroa.5.0..sroa_idx, align 4
  %.sroa.6.0..sroa_idx = getelementptr inbounds nuw i8, ptr %0, i64 16
  store i32 %1, ptr %.sroa.6.0..sroa_idx, align 4
  %.sroa.7.0..sroa_idx = getelementptr inbounds nuw i8, ptr %0, i64 20
  store i32 %5, ptr %.sroa.7.0..sroa_idx, align 4
  %.sroa.8.0..sroa_idx = getelementptr inbounds nuw i8, ptr %0, i64 24
  tail call void @llvm.memset.p0.i64(ptr noundef nonnull align 4 dereferenceable(20) %.sroa.8.0..sroa_idx, i8 0, i64 20, i1 false)
  ret i32 0
}